; Function Attrs: mustprogress nounwind uwtable
define dso_local void @_ZNK4llvm5APInt7ushl_ovERKS0_Rb(ptr dead_on_unwind noalias writable sret(%"class.llvm::APInt") align 8 captures(none) %0, ptr noundef nonnull readonly align 8 captures(none) dereferenceable(12) %1, ptr noundef nonnull readonly align 8 captures(none) dereferenceable(12) %2, ptr noundef nonnull writeonly align 1 captures(none) dereferenceable(1) %3) local_unnamed_addr #0 align 2 {
  %5 = getelementptr inbounds nuw i8, ptr %1, i64 8
  %6 = load i32, ptr %5, align 8
  %7 = zext i32 %6 to i64
  %8 = getelementptr inbounds nuw i8, ptr %2, i64 8
  %9 = load i32, ptr %8, align 8
  %10 = icmp ult i32 %9, 65
  %.pre.i.i = load ptr, ptr %2, align 8
  %11 = ptrtoint ptr %.pre.i.i to i64
  br i1 %10, label %_ZNK4llvm5APInt3ugtEm.exit.i, label %.lr.ph.i.i.i.i.i

.lr.ph.i.i.i.i.i:                                 ; preds = %4
  %12 = zext i32 %9 to i64
  %13 = add nuw nsw i64 %12, 63
  %14 = lshr i64 %13, 6
  br label %15

15:                                               ; preds = %20, %.lr.ph.i.i.i.i.i
  %indvars.iv.i.i.i.i = phi i64 [ %indvars.iv.next.i.i.i.i, %20 ], [ %14, %.lr.ph.i.i.i.i.i ]
  %.016.i.i.i.i.i = phi i32 [ %21, %20 ], [ 0, %.lr.ph.i.i.i.i.i ]
  %indvars.iv.next.i.i.i.i = add nsw i64 %indvars.iv.i.i.i.i, -1
  %16 = and i64 %indvars.iv.next.i.i.i.i, 4294967295
  %17 = getelementptr inbounds nuw i64, ptr %.pre.i.i, i64 %16
  %18 = load i64, ptr %17, align 8
  %19 = icmp eq i64 %18, 0
  br i1 %19, label %20, label %23

20:                                               ; preds = %15
  %21 = add i32 %.016.i.i.i.i.i, 64
  %22 = icmp samesign ugt i64 %indvars.iv.i.i.i.i, 1
  br i1 %22, label %15, label %_ZNK4llvm5APInt13getActiveBitsEv.exit.i.i, !llvm.loop !9

23:                                               ; preds = %15
  %24 = tail call range(i64 0, 65) i64 @llvm.ctlz.i64(i64 %18, i1 true)
  %25 = trunc nuw nsw i64 %24 to i32
  %26 = or disjoint i32 %.016.i.i.i.i.i, %25
  br label %_ZNK4llvm5APInt13getActiveBitsEv.exit.i.i

_ZNK4llvm5APInt13getActiveBitsEv.exit.i.i:        ; preds = %20, %23
  %.1.i.i.i.i.i = phi i32 [ %26, %23 ], [ %21, %20 ]
  %27 = and i32 %9, 63
  %.not.i.i.i.i.i = icmp eq i32 %27, 0
  %.neg.i.i.i.i.i = or i32 %9, -64
  %.neg13.i.i.i.i.i = select i1 %.not.i.i.i.i.i, i32 0, i32 %.neg.i.i.i.i.i
  %28 = add i32 %.neg13.i.i.i.i.i, %.1.i.i.i.i.i
  %29 = sub i32 %9, %28
  %30 = icmp ugt i32 %29, 64
  br i1 %30, label %_ZNK4llvm5APInt15getLimitedValueEm.exit, label %_ZNK4llvm5APInt13getActiveBitsEv.exit.i._ZNK4llvm5APInt3ugtEm.exit_crit_edge.i

_ZNK4llvm5APInt13getActiveBitsEv.exit.i._ZNK4llvm5APInt3ugtEm.exit_crit_edge.i: ; preds = %_ZNK4llvm5APInt13getActiveBitsEv.exit.i.i
  %.0.i.i.pre.i = load i64, ptr %.pre.i.i, align 8
  br label %_ZNK4llvm5APInt3ugtEm.exit.i

_ZNK4llvm5APInt3ugtEm.exit.i:                     ; preds = %_ZNK4llvm5APInt13getActiveBitsEv.exit.i._ZNK4llvm5APInt3ugtEm.exit_crit_edge.i, %4
  %.0.i.i.i = phi i64 [ %.0.i.i.pre.i, %_ZNK4llvm5APInt13getActiveBitsEv.exit.i._ZNK4llvm5APInt3ugtEm.exit_crit_edge.i ], [ %11, %4 ]
  %31 = icmp ugt i64 %.0.i.i.i, %7
  br i1 %31, label %_ZNK4llvm5APInt15getLimitedValueEm.exit, label %32

32:                                               ; preds = %_ZNK4llvm5APInt3ugtEm.exit.i
  %.0.in.i.i = select i1 %10, ptr %2, ptr %.pre.i.i
  %.0.i.i = load i64, ptr %.0.in.i.i, align 8
  %33 = trunc i64 %.0.i.i to i32
  br label %_ZNK4llvm5APInt15getLimitedValueEm.exit

_ZNK4llvm5APInt15getLimitedValueEm.exit:          ; preds = %_ZNK4llvm5APInt13getActiveBitsEv.exit.i.i, %_ZNK4llvm5APInt3ugtEm.exit.i, %32
  %34 = phi i32 [ %33, %32 ], [ %6, %_ZNK4llvm5APInt3ugtEm.exit.i ], [ %6, %_ZNK4llvm5APInt13getActiveBitsEv.exit.i.i ]
  tail call void @_ZNK4llvm5APInt7ushl_ovEjRb(ptr dead_on_unwind writable sret(%"class.llvm::APInt") align 8 %0, ptr noundef nonnull align 8 dereferenceable(12) %1, i32 noundef %34, ptr noundef nonnull align 1 dereferenceable(1) %3)
  ret void
}